target datalayout = "e-m:e-p270:32:32-p271:32:32-p272:64:64-i64:64-i128:128-f80:128-n8:16:32:64-S128"
target triple = "x86_64-pc-linux-gnu"

%struct._fvalue_t = type { ptr, %union.anon.1 }
%union.anon.1 = type { %struct._protocol_value_t }
%struct._protocol_value_t = type { ptr, i32, ptr, i8 }

@.str.40 = private unnamed_addr constant [42 x i8] c"\22%s\22 too big for this field, maximum %lu.\00", align 1
@.str.67 = private unnamed_addr constant [41 x i8] c"\22%s\22 is not a valid IPX network address.\00", align 1

; Function Attrs: null_pointer_is_valid sspstrong uwtable
define internal zeroext i1 @_uint64_from_uinteger64(ptr noundef %0, ptr noundef %1, i64 noundef %2, ptr noundef %3, i64 noundef %4) #0 {
  %6 = alloca i1, align 1
  %7 = alloca ptr, align 8
  %8 = alloca ptr, align 8
  %9 = alloca i64, align 8
  %10 = alloca ptr, align 8
  %11 = alloca i64, align 8
  store ptr %0, ptr %7, align 8
  store ptr %1, ptr %8, align 8
  store i64 %2, ptr %9, align 8
  store ptr %3, ptr %10, align 8
  store i64 %4, ptr %11, align 8
  %12 = load i64, ptr %9, align 8
  %13 = load i64, ptr %11, align 8
  %14 = icmp ugt i64 %12, %13
  br i1 %14, label %15, label %24

15:                                               ; preds = %5
  %16 = load ptr, ptr %10, align 8
  %17 = icmp ne ptr %16, null
  br i1 %17, label %18, label %23

18:                                               ; preds = %15
  %19 = load ptr, ptr %8, align 8
  %20 = load i64, ptr %11, align 8
  %21 = call noalias ptr (ptr, ptr, ...) @wmem_strdup_printf(ptr noundef null, ptr noundef @.str.40, ptr noundef %19, i64 noundef %20)
  %22 = load ptr, ptr %10, align 8
  store ptr %21, ptr %22, align 8
  br label %23

23:                                               ; preds = %18, %15
  store i1 false, ptr %6, align 1
  br label %28

24:                                               ; preds = %5
  %25 = load i64, ptr %9, align 8
  %26 = load ptr, ptr %7, align 8
  %27 = getelementptr inbounds nuw %struct._fvalue_t, ptr %26, i32 0, i32 1
  store i64 %25, ptr %27, align 8
  store i1 true, ptr %6, align 1
  br label %28

28:                                               ; preds = %24, %23
  %29 = load i1, ptr %6, align 1
  ret i1 %29
}

; Function Attrs: null_pointer_is_valid sspstrong uwtable
define internal zeroext i1 @uint32_from_uinteger64(ptr noundef %0, ptr noundef %1, i64 noundef %2, ptr noundef %3) #0 {
  %5 = alloca ptr, align 8
  %6 = alloca ptr, align 8
  %7 = alloca i64, align 8
  %8 = alloca ptr, align 8
  store ptr %0, ptr %5, align 8
  store ptr %1, ptr %6, align 8
  store i64 %2, ptr %7, align 8
  store ptr %3, ptr %8, align 8
  %9 = load ptr, ptr %5, align 8
  %10 = load ptr, ptr %6, align 8
  %11 = load i64, ptr %7, align 8
  %12 = load ptr, ptr %8, align 8
  %13 = call zeroext i1 @_uint64_from_uinteger64(ptr noundef %9, ptr noundef %10, i64 noundef %11, ptr noundef %12, i64 noundef 4294967295)
  ret i1 %13
}

; Function Attrs: null_pointer_is_valid sspstrong uwtable
define internal zeroext i1 @ipxnet_from_uinteger64(ptr noundef %0, ptr noundef %1, i64 noundef %2, ptr noundef %3) #0 {
  %5 = alloca i1, align 1
  %6 = alloca ptr, align 8
  %7 = alloca ptr, align 8
  %8 = alloca i64, align 8
  %9 = alloca ptr, align 8
  store ptr %0, ptr %6, align 8
  store ptr %1, ptr %7, align 8
  store i64 %2, ptr %8, align 8
  store ptr %3, ptr %9, align 8
  %10 = load ptr, ptr %6, align 8
  %11 = load ptr, ptr %7, align 8
  %12 = load i64, ptr %8, align 8
  %13 = call zeroext i1 @uint32_from_uinteger64(ptr noundef %10, ptr noundef %11, i64 noundef %12, ptr noundef null)
  br i1 %13, label %14, label %15

14:                                               ; preds = %4
  store i1 true, ptr %5, align 1
  br label %23

15:                                               ; preds = %4
  %16 = load ptr, ptr %9, align 8
  %17 = icmp ne ptr %16, null
  br i1 %17, label %18, label %22

18:                                               ; preds = %15
  %19 = load ptr, ptr %7, align 8
  %20 = call noalias ptr (ptr, ptr, ...) @wmem_strdup_printf(ptr noundef null, ptr noundef @.str.67, ptr noundef %19)
  %21 = load ptr, ptr %9, align 8
  store ptr %20, ptr %21, align 8
  br label %22

22:                                               ; preds = %18, %15
  store i1 false, ptr %5, align 1
  br label %23

23:                                               ; preds = %22, %14
  %24 = load i1, ptr %5, align 1
  ret i1 %24
}