; Function Attrs: null_pointer_is_valid sspstrong uwtable
define internal noundef zeroext i1 @ipxnet_from_uinteger64(ptr noundef writeonly captures(none) %0, ptr noundef %1, i64 noundef %2, ptr noundef writeonly captures(address_is_null) %3) #0 {
  %5 = icmp ult i64 %2, 4294967296
  br i1 %5, label %uint32_from_uinteger64.exit.thread, label %uint32_from_uinteger64.exit

uint32_from_uinteger64.exit.thread:               ; preds = %4
  %6 = getelementptr inbounds nuw i8, ptr %0, i64 8
  store i64 %2, ptr %6, align 8
  br label %9

uint32_from_uinteger64.exit:                      ; preds = %4
  %.not = icmp eq ptr %3, null
  br i1 %.not, label %9, label %7

7:                                                ; preds = %uint32_from_uinteger64.exit
  %8 = tail call noalias ptr (ptr, ptr, ...) @wmem_strdup_printf(ptr noundef null, ptr noundef nonnull @.str.67, ptr noundef %1)
  store ptr %8, ptr %3, align 8
  br label %9

9:                                                ; preds = %uint32_from_uinteger64.exit.thread, %7, %uint32_from_uinteger64.exit
  ret i1 %5
}